target datalayout = "e-m:e-p270:32:32-p271:32:32-p272:64:64-i64:64-i128:128-f80:128-n8:16:32:64-S128"
target triple = "x86_64-pc-linux-gnu"

%"class.nanogui::TextArea" = type { %"class.nanogui::Widget.base", %"class.std::vector.4", %"class.nanogui::Color", %"class.nanogui::Color", %"class.nanogui::Color", %"class.std::__cxx11::basic_string", %"struct.nanogui::Array", %"struct.nanogui::Array", i32, i8, %"struct.nanogui::Array", %"struct.nanogui::Array" }
%"class.nanogui::Widget.base" = type <{ %"class.nanogui::Object.base", [4 x i8], ptr, %"class.nanogui::ref", %"class.nanogui::ref.0", %"struct.nanogui::Array", %"struct.nanogui::Array", %"struct.nanogui::Array", %"class.std::vector", i8, i8, i8, i8, [4 x i8], %"class.std::__cxx11::basic_string", i32, float, i32 }>
%"class.nanogui::Object.base" = type <{ ptr, %"struct.std::atomic" }>
%"struct.std::atomic" = type { %"struct.std::__atomic_base" }
%"struct.std::__atomic_base" = type { i32 }
%"class.nanogui::ref" = type { ptr }
%"class.nanogui::ref.0" = type { ptr }
%"class.std::vector" = type { %"struct.std::_Vector_base" }
%"struct.std::_Vector_base" = type { %"struct.std::_Vector_base<nanogui::Widget *, std::allocator<nanogui::Widget *>>::_Vector_impl" }
%"struct.std::_Vector_base<nanogui::Widget *, std::allocator<nanogui::Widget *>>::_Vector_impl" = type { %"struct.std::_Vector_base<nanogui::Widget *, std::allocator<nanogui::Widget *>>::_Vector_impl_data" }
%"struct.std::_Vector_base<nanogui::Widget *, std::allocator<nanogui::Widget *>>::_Vector_impl_data" = type { ptr, ptr, ptr }
%"class.std::vector.4" = type { %"struct.std::_Vector_base.5" }
%"struct.std::_Vector_base.5" = type { %"struct.std::_Vector_base<nanogui::TextArea::Block, std::allocator<nanogui::TextArea::Block>>::_Vector_impl" }
%"struct.std::_Vector_base<nanogui::TextArea::Block, std::allocator<nanogui::TextArea::Block>>::_Vector_impl" = type { %"struct.std::_Vector_base<nanogui::TextArea::Block, std::allocator<nanogui::TextArea::Block>>::_Vector_impl_data" }
%"struct.std::_Vector_base<nanogui::TextArea::Block, std::allocator<nanogui::TextArea::Block>>::_Vector_impl_data" = type { ptr, ptr, ptr }
%"class.nanogui::Color" = type { %"struct.nanogui::Array.9" }
%"struct.nanogui::Array.9" = type { [4 x float] }
%"class.std::__cxx11::basic_string" = type { %"struct.std::__cxx11::basic_string<char>::_Alloc_hider", i64, %union.anon }
%"struct.std::__cxx11::basic_string<char>::_Alloc_hider" = type { ptr }
%union.anon = type { i64, [8 x i8] }
%"struct.nanogui::Array" = type { [2 x i32] }
%"struct.nanogui::TextArea::Block" = type { %"struct.nanogui::Array", i32, %"class.std::__cxx11::basic_string", %"class.nanogui::Color" }
%"class.nanogui::Screen" = type { %"class.nanogui::Widget.base", ptr, ptr, [6 x ptr], i32, %"class.std::vector", %"struct.nanogui::Array", float, i32, i32, %"struct.nanogui::Array", i8, ptr, double, i8, %"class.nanogui::Color", %"class.std::__cxx11::basic_string", i8, i8, i8, i8, i8, i8, %"class.std::function" }
%"class.std::function" = type { %"class.std::_Function_base", ptr }
%"class.std::_Function_base" = type { %"union.std::_Any_data", ptr }
%"union.std::_Any_data" = type { %"union.std::_Nocopy_types" }
%"union.std::_Nocopy_types" = type { { i64, i64 } }
%struct.NVGglyphPosition = type { ptr, float, float, float }

; Function Attrs: mustprogress nounwind uwtable
define linkonce_odr hidden noundef nonnull align 4 dereferenceable(4) ptr @_ZN7nanogui5ArrayIiLm2EEixEm(ptr noundef nonnull align 4 dereferenceable(8) %0, i64 noundef %1) #2 comdat align 2 {
  %3 = alloca ptr, align 8
  %4 = alloca i64, align 8
  store ptr %0, ptr %3, align 8
  store i64 %1, ptr %4, align 8
  %5 = load ptr, ptr %3, align 8
  %6 = getelementptr inbounds %"struct.nanogui::Array", ptr %5, i32 0, i32 0
  %7 = load i64, ptr %4, align 8
  %8 = getelementptr inbounds [2 x i32], ptr %6, i64 0, i64 %7
  ret ptr %8
}

; Function Attrs: mustprogress nounwind uwtable
define linkonce_odr hidden void @_ZN7nanogui5ArrayIiLm2EEC2Ev(ptr noundef nonnull align 4 dereferenceable(8) %0) unnamed_addr #2 comdat align 2 {
  %2 = alloca ptr, align 8
  store ptr %0, ptr %2, align 8
  ret void
}

; Function Attrs: mustprogress uwtable
define linkonce_odr hidden i64 @_ZN7nanoguiplERKNS_5ArrayIiLm2EEES3_(ptr noundef nonnull align 4 dereferenceable(8) %0, ptr noundef nonnull align 4 dereferenceable(8) %1) #0 comdat {
  %3 = alloca %"struct.nanogui::Array", align 4
  %4 = alloca ptr, align 8
  %5 = alloca ptr, align 8
  %6 = alloca i64, align 8
  store ptr %0, ptr %4, align 8
  store ptr %1, ptr %5, align 8
  call void @_ZN7nanogui5ArrayIiLm2EEC2Ev(ptr noundef nonnull align 4 dereferenceable(8) %3)
  store i64 0, ptr %6, align 8
  br label %7

7:                                                ; preds = %24, %2
  %8 = load i64, ptr %6, align 8
  %9 = icmp ult i64 %8, 2
  br i1 %9, label %10, label %27

10:                                               ; preds = %7
  %11 = load ptr, ptr %4, align 8
  %12 = getelementptr inbounds %"struct.nanogui::Array", ptr %11, i32 0, i32 0
  %13 = load i64, ptr %6, align 8
  %14 = getelementptr inbounds [2 x i32], ptr %12, i64 0, i64 %13
  %15 = load i32, ptr %14, align 4
  %16 = load ptr, ptr %5, align 8
  %17 = getelementptr inbounds %"struct.nanogui::Array", ptr %16, i32 0, i32 0
  %18 = load i64, ptr %6, align 8
  %19 = getelementptr inbounds [2 x i32], ptr %17, i64 0, i64 %18
  %20 = load i32, ptr %19, align 4
  %21 = add nsw i32 %15, %20
  %22 = load i64, ptr %6, align 8
  %23 = call noundef nonnull align 4 dereferenceable(4) ptr @_ZN7nanogui5ArrayIiLm2EEixEm(ptr noundef nonnull align 4 dereferenceable(8) %3, i64 noundef %22)
  store i32 %21, ptr %23, align 4
  br label %24

24:                                               ; preds = %10
  %25 = load i64, ptr %6, align 8
  %26 = add i64 %25, 1
  store i64 %26, ptr %6, align 8
  br label %7, !llvm.loop !11

27:                                               ; preds = %7
  %28 = getelementptr inbounds %"struct.nanogui::Array", ptr %3, i32 0, i32 0
  %29 = load i64, ptr %28, align 4
  ret i64 %29
}

; Function Attrs: mustprogress nounwind uwtable
define linkonce_odr hidden noundef nonnull align 4 dereferenceable(4) ptr @_ZNK7nanogui5ArrayIiLm2EE1yILm2ETnNSt9enable_ifIXgeT_Li2EEiE4typeELi0EEERKiv(ptr noundef nonnull align 4 dereferenceable(8) %0) #2 comdat align 2 {
  %2 = alloca ptr, align 8
  store ptr %0, ptr %2, align 8
  %3 = load ptr, ptr %2, align 8
  %4 = getelementptr inbounds %"struct.nanogui::Array", ptr %3, i32 0, i32 0
  %5 = getelementptr inbounds [2 x i32], ptr %4, i64 0, i64 1
  ret ptr %5
}

; Function Attrs: mustprogress nounwind uwtable
define linkonce_odr hidden noundef nonnull align 8 dereferenceable(64) ptr @_ZNKSt6vectorIN7nanogui8TextArea5BlockESaIS2_EEixEm(ptr noundef nonnull align 8 dereferenceable(24) %0, i64 noundef %1) #2 comdat align 2 {
  %3 = alloca ptr, align 8
  %4 = alloca i64, align 8
  store ptr %0, ptr %3, align 8
  store i64 %1, ptr %4, align 8
  %5 = load ptr, ptr %3, align 8
  %6 = getelementptr inbounds %"struct.std::_Vector_base.5", ptr %5, i32 0, i32 0
  %7 = getelementptr inbounds %"struct.std::_Vector_base<nanogui::TextArea::Block, std::allocator<nanogui::TextArea::Block>>::_Vector_impl_data", ptr %6, i32 0, i32 0
  %8 = load ptr, ptr %7, align 8
  %9 = load i64, ptr %4, align 8
  %10 = getelementptr inbounds %"struct.nanogui::TextArea::Block", ptr %8, i64 %9
  ret ptr %10
}

; Function Attrs: mustprogress nounwind uwtable
define linkonce_odr hidden noundef ptr @_ZNK7nanogui6Screen11nvg_contextEv(ptr noundef nonnull align 8 dereferenceable(384) %0) #2 comdat align 2 {
  %2 = alloca ptr, align 8
  store ptr %0, ptr %2, align 8
  %3 = load ptr, ptr %2, align 8
  %4 = getelementptr inbounds %"class.nanogui::Screen", ptr %3, i32 0, i32 2
  %5 = load ptr, ptr %4, align 8
  ret ptr %5
}

; Function Attrs: mustprogress nounwind uwtable
define linkonce_odr hidden void @_ZN7nanogui5ArrayIiLm2EEC2ILm2ETnNSt9enable_ifIXeqT_Li2EEiE4typeELi0EEEii(ptr noundef nonnull align 4 dereferenceable(8) %0, i32 noundef %1, i32 noundef %2) unnamed_addr #2 comdat align 2 {
  %4 = alloca ptr, align 8
  %5 = alloca i32, align 4
  %6 = alloca i32, align 4
  store ptr %0, ptr %4, align 8
  store i32 %1, ptr %5, align 4
  store i32 %2, ptr %6, align 4
  %7 = load ptr, ptr %4, align 8
  %8 = load i32, ptr %5, align 4
  %9 = getelementptr inbounds %"struct.nanogui::Array", ptr %7, i32 0, i32 0
  %10 = getelementptr inbounds [2 x i32], ptr %9, i64 0, i64 0
  store i32 %8, ptr %10, align 4
  %11 = load i32, ptr %6, align 4
  %12 = getelementptr inbounds %"struct.nanogui::Array", ptr %7, i32 0, i32 0
  %13 = getelementptr inbounds [2 x i32], ptr %12, i64 0, i64 1
  store i32 %11, ptr %13, align 4
  ret void
}

; Function Attrs: mustprogress nounwind uwtable
define linkonce_odr hidden noundef i64 @_ZNKSt6vectorIN7nanogui8TextArea5BlockESaIS2_EE4sizeEv(ptr noundef nonnull align 8 dereferenceable(24) %0) #2 comdat align 2 {
  %2 = alloca ptr, align 8
  store ptr %0, ptr %2, align 8
  %3 = load ptr, ptr %2, align 8
  %4 = getelementptr inbounds %"struct.std::_Vector_base.5", ptr %3, i32 0, i32 0
  %5 = getelementptr inbounds %"struct.std::_Vector_base<nanogui::TextArea::Block, std::allocator<nanogui::TextArea::Block>>::_Vector_impl_data", ptr %4, i32 0, i32 1
  %6 = load ptr, ptr %5, align 8
  %7 = getelementptr inbounds %"struct.std::_Vector_base.5", ptr %3, i32 0, i32 0
  %8 = getelementptr inbounds %"struct.std::_Vector_base<nanogui::TextArea::Block, std::allocator<nanogui::TextArea::Block>>::_Vector_impl_data", ptr %7, i32 0, i32 0
  %9 = load ptr, ptr %8, align 8
  %10 = ptrtoint ptr %6 to i64
  %11 = ptrtoint ptr %9 to i64
  %12 = sub i64 %10, %11
  %13 = sdiv exact i64 %12, 64
  ret i64 %13
}

; Function Attrs: mustprogress nounwind uwtable
define linkonce_odr hidden noundef nonnull align 4 dereferenceable(4) ptr @_ZNK7nanogui5ArrayIiLm2EE1xILm2ETnNSt9enable_ifIXgeT_Li1EEiE4typeELi0EEERKiv(ptr noundef nonnull align 4 dereferenceable(8) %0) #2 comdat align 2 {
  %2 = alloca ptr, align 8
  store ptr %0, ptr %2, align 8
  %3 = load ptr, ptr %2, align 8
  %4 = getelementptr inbounds %"struct.nanogui::Array", ptr %3, i32 0, i32 0
  %5 = getelementptr inbounds [2 x i32], ptr %4, i64 0, i64 0
  ret ptr %5
}

; Function Attrs: mustprogress uwtable
define hidden i64 @_ZNK7nanogui8TextArea17block_to_positionERKNS_5ArrayIiLm2EEE(ptr noundef nonnull align 8 dereferenceable(288) %0, ptr noundef nonnull align 4 dereferenceable(8) %1) #0 align 2 {
  %3 = alloca %"struct.nanogui::Array", align 4
  %4 = alloca ptr, align 8
  %5 = alloca ptr, align 8
  %6 = alloca ptr, align 8
  %7 = alloca ptr, align 8
  %8 = alloca i32, align 4
  %9 = alloca [1024 x %struct.NVGglyphPosition], align 16
  %10 = alloca i32, align 4
  %11 = alloca %"struct.nanogui::Array", align 4
  %12 = alloca %"struct.nanogui::Array", align 4
  store ptr %0, ptr %4, align 8
  store ptr %1, ptr %5, align 8
  %13 = load ptr, ptr %4, align 8
  %14 = load ptr, ptr %5, align 8
  %15 = call noundef nonnull align 4 dereferenceable(4) ptr @_ZNK7nanogui5ArrayIiLm2EE1xILm2ETnNSt9enable_ifIXgeT_Li1EEiE4typeELi0EEERKiv(ptr noundef nonnull align 4 dereferenceable(8) %14)
  %16 = load i32, ptr %15, align 4
  %17 = icmp slt i32 %16, 0
  br i1 %17, label %26, label %18

18:                                               ; preds = %2
  %19 = load ptr, ptr %5, align 8
  %20 = call noundef nonnull align 4 dereferenceable(4) ptr @_ZNK7nanogui5ArrayIiLm2EE1xILm2ETnNSt9enable_ifIXgeT_Li1EEiE4typeELi0EEERKiv(ptr noundef nonnull align 4 dereferenceable(8) %19)
  %21 = load i32, ptr %20, align 4
  %22 = getelementptr inbounds %"class.nanogui::TextArea", ptr %13, i32 0, i32 1
  %23 = call noundef i64 @_ZNKSt6vectorIN7nanogui8TextArea5BlockESaIS2_EE4sizeEv(ptr noundef nonnull align 8 dereferenceable(24) %22) #12
  %24 = trunc i64 %23 to i32
  %25 = icmp sge i32 %21, %24
  br i1 %25, label %26, label %27

26:                                               ; preds = %18, %2
  call void @_ZN7nanogui5ArrayIiLm2EEC2ILm2ETnNSt9enable_ifIXeqT_Li2EEiE4typeELi0EEEii(ptr noundef nonnull align 4 dereferenceable(8) %3, i32 noundef -1, i32 noundef -1)
  br label %99

27:                                               ; preds = %18
  %28 = call noundef ptr @_ZNK7nanogui6Widget6screenEv(ptr noundef nonnull align 8 dereferenceable(140) %13)
  %29 = call noundef ptr @_ZNK7nanogui6Screen11nvg_contextEv(ptr noundef nonnull align 8 dereferenceable(384) %28)
  store ptr %29, ptr %6, align 8
  %30 = getelementptr inbounds %"class.nanogui::TextArea", ptr %13, i32 0, i32 1
  %31 = load ptr, ptr %5, align 8
  %32 = call noundef nonnull align 4 dereferenceable(4) ptr @_ZNK7nanogui5ArrayIiLm2EE1xILm2ETnNSt9enable_ifIXgeT_Li1EEiE4typeELi0EEERKiv(ptr noundef nonnull align 4 dereferenceable(8) %31)
  %33 = load i32, ptr %32, align 4
  %34 = sext i32 %33 to i64
  %35 = call noundef nonnull align 8 dereferenceable(64) ptr @_ZNKSt6vectorIN7nanogui8TextArea5BlockESaIS2_EEixEm(ptr noundef nonnull align 8 dereferenceable(24) %30, i64 noundef %34) #12
  store ptr %35, ptr %7, align 8
  store i32 1024, ptr %8, align 4
  %36 = load ptr, ptr %6, align 8
  %37 = call noundef i32 @_ZNK7nanogui6Widget9font_sizeEv(ptr noundef nonnull align 8 dereferenceable(140) %13)
  %38 = sitofp i32 %37 to float
  call void @nvgFontSize(ptr noundef %36, float noundef %38)
  %39 = load ptr, ptr %6, align 8
  %40 = getelementptr inbounds %"class.nanogui::TextArea", ptr %13, i32 0, i32 5
  %41 = call noundef ptr @_ZNKSt7__cxx1112basic_stringIcSt11char_traitsIcESaIcEE5c_strEv(ptr noundef nonnull align 8 dereferenceable(32) %40) #12
  call void @nvgFontFace(ptr noundef %39, ptr noundef %41)
  %42 = load ptr, ptr %6, align 8
  %43 = load ptr, ptr %7, align 8
  %44 = getelementptr inbounds %"struct.nanogui::TextArea::Block", ptr %43, i32 0, i32 0
  %45 = call noundef nonnull align 4 dereferenceable(4) ptr @_ZNK7nanogui5ArrayIiLm2EE1xILm2ETnNSt9enable_ifIXgeT_Li1EEiE4typeELi0EEERKiv(ptr noundef nonnull align 4 dereferenceable(8) %44)
  %46 = load i32, ptr %45, align 4
  %47 = sitofp i32 %46 to float
  %48 = load ptr, ptr %7, align 8
  %49 = getelementptr inbounds %"struct.nanogui::TextArea::Block", ptr %48, i32 0, i32 0
  %50 = call noundef nonnull align 4 dereferenceable(4) ptr @_ZNK7nanogui5ArrayIiLm2EE1yILm2ETnNSt9enable_ifIXgeT_Li2EEiE4typeELi0EEERKiv(ptr noundef nonnull align 4 dereferenceable(8) %49)
  %51 = load i32, ptr %50, align 4
  %52 = sitofp i32 %51 to float
  %53 = load ptr, ptr %7, align 8
  %54 = getelementptr inbounds %"struct.nanogui::TextArea::Block", ptr %53, i32 0, i32 2
  %55 = call noundef ptr @_ZNKSt7__cxx1112basic_stringIcSt11char_traitsIcESaIcEE5c_strEv(ptr noundef nonnull align 8 dereferenceable(32) %54) #12
  %56 = getelementptr inbounds [1024 x %struct.NVGglyphPosition], ptr %9, i64 0, i64 0
  %57 = call i32 @nvgTextGlyphPositions(ptr noundef %42, float noundef %47, float noundef %52, ptr noundef %55, ptr noundef null, ptr noundef %56, i32 noundef 1024)
  store i32 %57, ptr %10, align 4
  %58 = load ptr, ptr %5, align 8
  %59 = call noundef nonnull align 4 dereferenceable(4) ptr @_ZNK7nanogui5ArrayIiLm2EE1yILm2ETnNSt9enable_ifIXgeT_Li2EEiE4typeELi0EEERKiv(ptr noundef nonnull align 4 dereferenceable(8) %58)
  %60 = load i32, ptr %59, align 4
  %61 = load i32, ptr %10, align 4
  %62 = icmp eq i32 %60, %61
  br i1 %62, label %63, label %78

63:                                               ; preds = %27
  %64 = load ptr, ptr %7, align 8
  %65 = getelementptr inbounds %"struct.nanogui::TextArea::Block", ptr %64, i32 0, i32 0
  %66 = load ptr, ptr %5, align 8
  %67 = call noundef nonnull align 4 dereferenceable(4) ptr @_ZNK7nanogui5ArrayIiLm2EE1yILm2ETnNSt9enable_ifIXgeT_Li2EEiE4typeELi0EEERKiv(ptr noundef nonnull align 4 dereferenceable(8) %66)
  %68 = load i32, ptr %67, align 4
  %69 = sub nsw i32 %68, 1
  %70 = sext i32 %69 to i64
  %71 = getelementptr inbounds [1024 x %struct.NVGglyphPosition], ptr %9, i64 0, i64 %70
  %72 = getelementptr inbounds %struct.NVGglyphPosition, ptr %71, i32 0, i32 3
  %73 = load float, ptr %72, align 8
  %74 = fadd float %73, 1.000000e+00
  %75 = fptosi float %74 to i32
  call void @_ZN7nanogui5ArrayIiLm2EEC2ILm2ETnNSt9enable_ifIXeqT_Li2EEiE4typeELi0EEEii(ptr noundef nonnull align 4 dereferenceable(8) %11, i32 noundef %75, i32 noundef 0)
  %76 = call i64 @_ZN7nanoguiplERKNS_5ArrayIiLm2EEES3_(ptr noundef nonnull align 4 dereferenceable(8) %65, ptr noundef nonnull align 4 dereferenceable(8) %11)
  %77 = getelementptr inbounds %"struct.nanogui::Array", ptr %3, i32 0, i32 0
  store i64 %76, ptr %77, align 4
  br label %99

78:                                               ; preds = %27
  %79 = load ptr, ptr %5, align 8
  %80 = call noundef nonnull align 4 dereferenceable(4) ptr @_ZNK7nanogui5ArrayIiLm2EE1yILm2ETnNSt9enable_ifIXgeT_Li2EEiE4typeELi0EEERKiv(ptr noundef nonnull align 4 dereferenceable(8) %79)
  %81 = load i32, ptr %80, align 4
  %82 = load i32, ptr %10, align 4
  %83 = icmp sgt i32 %81, %82
  br i1 %83, label %84, label %85

84:                                               ; preds = %78
  call void @_ZN7nanogui5ArrayIiLm2EEC2ILm2ETnNSt9enable_ifIXeqT_Li2EEiE4typeELi0EEEii(ptr noundef nonnull align 4 dereferenceable(8) %3, i32 noundef -1, i32 noundef -1)
  br label %99

85:                                               ; preds = %78
  br label %86

86:                                               ; preds = %85
  %87 = load ptr, ptr %7, align 8
  %88 = getelementptr inbounds %"struct.nanogui::TextArea::Block", ptr %87, i32 0, i32 0
  %89 = load ptr, ptr %5, align 8
  %90 = call noundef nonnull align 4 dereferenceable(4) ptr @_ZNK7nanogui5ArrayIiLm2EE1yILm2ETnNSt9enable_ifIXgeT_Li2EEiE4typeELi0EEERKiv(ptr noundef nonnull align 4 dereferenceable(8) %89)
  %91 = load i32, ptr %90, align 4
  %92 = sext i32 %91 to i64
  %93 = getelementptr inbounds [1024 x %struct.NVGglyphPosition], ptr %9, i64 0, i64 %92
  %94 = getelementptr inbounds %struct.NVGglyphPosition, ptr %93, i32 0, i32 1
  %95 = load float, ptr %94, align 8
  %96 = fptosi float %95 to i32
  call void @_ZN7nanogui5ArrayIiLm2EEC2ILm2ETnNSt9enable_ifIXeqT_Li2EEiE4typeELi0EEEii(ptr noundef nonnull align 4 dereferenceable(8) %12, i32 noundef %96, i32 noundef 0)
  %97 = call i64 @_ZN7nanoguiplERKNS_5ArrayIiLm2EEES3_(ptr noundef nonnull align 4 dereferenceable(8) %88, ptr noundef nonnull align 4 dereferenceable(8) %12)
  %98 = getelementptr inbounds %"struct.nanogui::Array", ptr %3, i32 0, i32 0
  store i64 %97, ptr %98, align 4
  br label %99

99:                                               ; preds = %86, %84, %63, %26
  %100 = getelementptr inbounds %"struct.nanogui::Array", ptr %3, i32 0, i32 0
  %101 = load i64, ptr %100, align 4
  ret i64 %101
}