; Function Attrs: mustprogress uwtable
define hidden i64 @_ZNK7nanogui8TextArea17block_to_positionERKNS_5ArrayIiLm2EEE(ptr noundef nonnull align 8 dereferenceable(288) %0, ptr nocapture noundef nonnull readonly align 4 dereferenceable(8) %1) local_unnamed_addr #4 align 2 {
  %3 = alloca [1024 x %struct.NVGglyphPosition], align 16
  %4 = load i32, ptr %1, align 4
  %5 = icmp slt i32 %4, 0
  br i1 %5, label %56, label %6

6:                                                ; preds = %2
  %7 = getelementptr inbounds i8, ptr %0, i64 144
  %8 = getelementptr inbounds i8, ptr %0, i64 152
  %9 = load ptr, ptr %8, align 8
  %10 = load ptr, ptr %7, align 8
  %11 = ptrtoint ptr %9 to i64
  %12 = ptrtoint ptr %10 to i64
  %13 = sub i64 %11, %12
  %14 = lshr exact i64 %13, 6
  %15 = trunc i64 %14 to i32
  %.not = icmp slt i32 %4, %15
  br i1 %.not, label %16, label %56

16:                                               ; preds = %6
  %17 = tail call noundef ptr @_ZNK7nanogui6Widget6screenEv(ptr noundef nonnull align 8 dereferenceable(140) %0)
  %18 = getelementptr inbounds i8, ptr %17, i64 152
  %19 = load ptr, ptr %18, align 8
  %20 = load i32, ptr %1, align 4
  %21 = sext i32 %20 to i64
  %22 = load ptr, ptr %7, align 8
  %23 = getelementptr inbounds %"struct.nanogui::TextArea::Block", ptr %22, i64 %21
  %24 = tail call noundef i32 @_ZNK7nanogui6Widget9font_sizeEv(ptr noundef nonnull align 8 dereferenceable(140) %0)
  %25 = sitofp i32 %24 to float
  tail call void @nvgFontSize(ptr noundef %19, float noundef %25)
  %26 = getelementptr inbounds i8, ptr %0, i64 216
  %27 = tail call noundef ptr @_ZNKSt7__cxx1112basic_stringIcSt11char_traitsIcESaIcEE5c_strEv(ptr noundef nonnull align 8 dereferenceable(32) %26) #15
  tail call void @nvgFontFace(ptr noundef %19, ptr noundef %27)
  %28 = load i32, ptr %23, align 4
  %29 = sitofp i32 %28 to float
  %30 = getelementptr inbounds i8, ptr %23, i64 4
  %31 = load i32, ptr %30, align 4
  %32 = sitofp i32 %31 to float
  %33 = getelementptr inbounds i8, ptr %23, i64 16
  %34 = tail call noundef ptr @_ZNKSt7__cxx1112basic_stringIcSt11char_traitsIcESaIcEE5c_strEv(ptr noundef nonnull align 8 dereferenceable(32) %33) #15
  %35 = call i32 @nvgTextGlyphPositions(ptr noundef %19, float noundef %29, float noundef %32, ptr noundef %34, ptr noundef null, ptr noundef nonnull %3, i32 noundef 1024)
  %36 = getelementptr inbounds i8, ptr %1, i64 4
  %37 = load i32, ptr %36, align 4
  %38 = icmp eq i32 %37, %35
  br i1 %38, label %_ZN7nanoguiplERKNS_5ArrayIiLm2EEES3_.exit.critedge, label %44

_ZN7nanoguiplERKNS_5ArrayIiLm2EEES3_.exit.critedge: ; preds = %16
  %39 = add nsw i32 %35, -1
  %40 = sext i32 %39 to i64
  %41 = getelementptr inbounds [1024 x %struct.NVGglyphPosition], ptr %3, i64 0, i64 %40, i32 3
  %42 = load float, ptr %41, align 8
  %43 = fadd float %42, 1.000000e+00
  br label %.sink.split

44:                                               ; preds = %16
  %45 = icmp sgt i32 %37, %35
  br i1 %45, label %56, label %_ZN7nanoguiplERKNS_5ArrayIiLm2EEES3_.exit18.critedge

_ZN7nanoguiplERKNS_5ArrayIiLm2EEES3_.exit18.critedge: ; preds = %44
  %46 = sext i32 %37 to i64
  %47 = getelementptr inbounds [1024 x %struct.NVGglyphPosition], ptr %3, i64 0, i64 %46, i32 1
  %48 = load float, ptr %47, align 8
  br label %.sink.split

.sink.split:                                      ; preds = %_ZN7nanoguiplERKNS_5ArrayIiLm2EEES3_.exit.critedge, %_ZN7nanoguiplERKNS_5ArrayIiLm2EEES3_.exit18.critedge
  %.sink = phi float [ %48, %_ZN7nanoguiplERKNS_5ArrayIiLm2EEES3_.exit18.critedge ], [ %43, %_ZN7nanoguiplERKNS_5ArrayIiLm2EEES3_.exit.critedge ]
  %49 = fptosi float %.sink to i32
  %50 = load i32, ptr %23, align 4
  %51 = add nsw i32 %50, %49
  %52 = load i32, ptr %30, align 4
  %53 = zext i32 %52 to i64
  %54 = shl nuw i64 %53, 32
  %55 = zext i32 %51 to i64
  br label %56

56:                                               ; preds = %.sink.split, %44, %2, %6
  %.sroa.025.0 = phi i64 [ 4294967295, %6 ], [ 4294967295, %2 ], [ 4294967295, %44 ], [ %55, %.sink.split ]
  %.sroa.5.0 = phi i64 [ -4294967296, %6 ], [ -4294967296, %2 ], [ -4294967296, %44 ], [ %54, %.sink.split ]
  %.sroa.025.0.insert.insert = or disjoint i64 %.sroa.5.0, %.sroa.025.0
  ret i64 %.sroa.025.0.insert.insert
}